; ModuleID = '63/1579.c'
source_filename = "63/1579.c"
target datalayout = "e-m:e-p270:32:32-p271:32:32-p272:64:64-i64:64-f80:128-n8:16:32:64-S128"
target triple = "x86_64-pc-linux-gnu"

@.str = private unnamed_addr constant [6 x i8] c"%d %d\00", align 1
@.str.1 = private unnamed_addr constant [3 x i8] c"%d\00", align 1
@.str.2 = private unnamed_addr constant [4 x i8] c"%d \00", align 1
@.str.3 = private unnamed_addr constant [4 x i8] c"%d\0A\00", align 1

; Function Attrs: noinline nounwind uwtable
define dso_local i32 @main() #0 {
  %1 = alloca i32, align 4
  %2 = alloca [100 x [100 x i32]], align 16
  %3 = alloca [100 x [100 x i32]], align 16
  %4 = alloca [100 x [100 x i32]], align 16
  %5 = alloca i32, align 4
  %6 = alloca i32, align 4
  %7 = alloca i32, align 4
  %8 = alloca i32, align 4
  %9 = alloca i32, align 4
  %10 = alloca i32, align 4
  %11 = alloca i32, align 4
  %12 = alloca i32, align 4
  store i32 0, i32* %1, align 4
  %13 = call i32 (i8*, ...) @__isoc99_scanf(i8* getelementptr inbounds ([6 x i8], [6 x i8]* @.str, i64 0, i64 0), i32* %8, i32* %9)
  store i32 0, i32* %5, align 4
  br label %14

14:                                               ; preds = %36, %0
  %15 = load i32, i32* %5, align 4
  %16 = load i32, i32* %8, align 4
  %17 = icmp slt i32 %15, %16
  br i1 %17, label %18, label %39

18:                                               ; preds = %14
  store i32 0, i32* %6, align 4
  br label %19

19:                                               ; preds = %32, %18
  %20 = load i32, i32* %6, align 4
  %21 = load i32, i32* %9, align 4
  %22 = icmp slt i32 %20, %21
  br i1 %22, label %23, label %35

23:                                               ; preds = %19
  %24 = call i32 (i8*, ...) @__isoc99_scanf(i8* getelementptr inbounds ([3 x i8], [3 x i8]* @.str.1, i64 0, i64 0), i32* %12)
  %25 = load i32, i32* %12, align 4
  %26 = load i32, i32* %5, align 4
  %27 = sext i32 %26 to i64
  %28 = getelementptr inbounds [100 x [100 x i32]], [100 x [100 x i32]]* %2, i64 0, i64 %27
  %29 = load i32, i32* %6, align 4
  %30 = sext i32 %29 to i64
  %31 = getelementptr inbounds [100 x i32], [100 x i32]* %28, i64 0, i64 %30
  store i32 %25, i32* %31, align 4
  br label %32

32:                                               ; preds = %23
  %33 = load i32, i32* %6, align 4
  %34 = add nsw i32 %33, 1
  store i32 %34, i32* %6, align 4
  br label %19

35:                                               ; preds = %19
  br label %36

36:                                               ; preds = %35
  %37 = load i32, i32* %5, align 4
  %38 = add nsw i32 %37, 1
  store i32 %38, i32* %5, align 4
  br label %14

39:                                               ; preds = %14
  %40 = call i32 (i8*, ...) @__isoc99_scanf(i8* getelementptr inbounds ([6 x i8], [6 x i8]* @.str, i64 0, i64 0), i32* %10, i32* %11)
  store i32 0, i32* %5, align 4
  br label %41

41:                                               ; preds = %63, %39
  %42 = load i32, i32* %5, align 4
  %43 = load i32, i32* %10, align 4
  %44 = icmp slt i32 %42, %43
  br i1 %44, label %45, label %66

45:                                               ; preds = %41
  store i32 0, i32* %6, align 4
  br label %46

46:                                               ; preds = %59, %45
  %47 = load i32, i32* %6, align 4
  %48 = load i32, i32* %11, align 4
  %49 = icmp slt i32 %47, %48
  br i1 %49, label %50, label %62

50:                                               ; preds = %46
  %51 = call i32 (i8*, ...) @__isoc99_scanf(i8* getelementptr inbounds ([3 x i8], [3 x i8]* @.str.1, i64 0, i64 0), i32* %12)
  %52 = load i32, i32* %12, align 4
  %53 = load i32, i32* %5, align 4
  %54 = sext i32 %53 to i64
  %55 = getelementptr inbounds [100 x [100 x i32]], [100 x [100 x i32]]* %3, i64 0, i64 %54
  %56 = load i32, i32* %6, align 4
  %57 = sext i32 %56 to i64
  %58 = getelementptr inbounds [100 x i32], [100 x i32]* %55, i64 0, i64 %57
  store i32 %52, i32* %58, align 4
  br label %59

59:                                               ; preds = %50
  %60 = load i32, i32* %6, align 4
  %61 = add nsw i32 %60, 1
  store i32 %61, i32* %6, align 4
  br label %46

62:                                               ; preds = %46
  br label %63

63:                                               ; preds = %62
  %64 = load i32, i32* %5, align 4
  %65 = add nsw i32 %64, 1
  store i32 %65, i32* %5, align 4
  br label %41

66:                                               ; preds = %41
  store i32 0, i32* %5, align 4
  br label %67

67:                                               ; preds = %125, %66
  %68 = load i32, i32* %5, align 4
  %69 = load i32, i32* %8, align 4
  %70 = icmp slt i32 %68, %69
  br i1 %70, label %71, label %128

71:                                               ; preds = %67
  store i32 0, i32* %6, align 4
  br label %72

72:                                               ; preds = %121, %71
  %73 = load i32, i32* %6, align 4
  %74 = load i32, i32* %11, align 4
  %75 = icmp slt i32 %73, %74
  br i1 %75, label %76, label %124

76:                                               ; preds = %72
  %77 = load i32, i32* %5, align 4
  %78 = sext i32 %77 to i64
  %79 = getelementptr inbounds [100 x [100 x i32]], [100 x [100 x i32]]* %4, i64 0, i64 %78
  %80 = load i32, i32* %6, align 4
  %81 = sext i32 %80 to i64
  %82 = getelementptr inbounds [100 x i32], [100 x i32]* %79, i64 0, i64 %81
  store i32 0, i32* %82, align 4
  store i32 0, i32* %7, align 4
  br label %83

83:                                               ; preds = %117, %76
  %84 = load i32, i32* %7, align 4
  %85 = load i32, i32* %10, align 4
  %86 = icmp slt i32 %84, %85
  br i1 %86, label %87, label %120

87:                                               ; preds = %83
  %88 = load i32, i32* %5, align 4
  %89 = sext i32 %88 to i64
  %90 = getelementptr inbounds [100 x [100 x i32]], [100 x [100 x i32]]* %2, i64 0, i64 %89
  %91 = load i32, i32* %7, align 4
  %92 = sext i32 %91 to i64
  %93 = getelementptr inbounds [100 x i32], [100 x i32]* %90, i64 0, i64 %92
  %94 = load i32, i32* %93, align 4
  %95 = load i32, i32* %7, align 4
  %96 = sext i32 %95 to i64
  %97 = getelementptr inbounds [100 x [100 x i32]], [100 x [100 x i32]]* %3, i64 0, i64 %96
  %98 = load i32, i32* %6, align 4
  %99 = sext i32 %98 to i64
  %100 = getelementptr inbounds [100 x i32], [100 x i32]* %97, i64 0, i64 %99
  %101 = load i32, i32* %100, align 4
  %102 = mul nsw i32 %94, %101
  %103 = load i32, i32* %5, align 4
  %104 = sext i32 %103 to i64
  %105 = getelementptr inbounds [100 x [100 x i32]], [100 x [100 x i32]]* %4, i64 0, i64 %104
  %106 = load i32, i32* %6, align 4
  %107 = sext i32 %106 to i64
  %108 = getelementptr inbounds [100 x i32], [100 x i32]* %105, i64 0, i64 %107
  %109 = load i32, i32* %108, align 4
  %110 = add nsw i32 %102, %109
  %111 = load i32, i32* %5, align 4
  %112 = sext i32 %111 to i64
  %113 = getelementptr inbounds [100 x [100 x i32]], [100 x [100 x i32]]* %4, i64 0, i64 %112
  %114 = load i32, i32* %6, align 4
  %115 = sext i32 %114 to i64
  %116 = getelementptr inbounds [100 x i32], [100 x i32]* %113, i64 0, i64 %115
  store i32 %110, i32* %116, align 4
  br label %117

117:                                              ; preds = %87
  %118 = load i32, i32* %7, align 4
  %119 = add nsw i32 %118, 1
  store i32 %119, i32* %7, align 4
  br label %83

120:                                              ; preds = %83
  br label %121

121:                                              ; preds = %120
  %122 = load i32, i32* %6, align 4
  %123 = add nsw i32 %122, 1
  store i32 %123, i32* %6, align 4
  br label %72

124:                                              ; preds = %72
  br label %125

125:                                              ; preds = %124
  %126 = load i32, i32* %5, align 4
  %127 = add nsw i32 %126, 1
  store i32 %127, i32* %5, align 4
  br label %67

128:                                              ; preds = %67
  store i32 0, i32* %5, align 4
  br label %129

129:                                              ; preds = %166, %128
  %130 = load i32, i32* %5, align 4
  %131 = load i32, i32* %8, align 4
  %132 = icmp slt i32 %130, %131
  br i1 %132, label %133, label %169

133:                                              ; preds = %129
  store i32 0, i32* %6, align 4
  br label %134

134:                                              ; preds = %162, %133
  %135 = load i32, i32* %6, align 4
  %136 = load i32, i32* %11, align 4
  %137 = icmp slt i32 %135, %136
  br i1 %137, label %138, label %165

138:                                              ; preds = %134
  %139 = load i32, i32* %6, align 4
  %140 = load i32, i32* %11, align 4
  %141 = sub nsw i32 %140, 1
  %142 = icmp slt i32 %139, %141
  br i1 %142, label %143, label %152

143:                                              ; preds = %138
  %144 = load i32, i32* %5, align 4
  %145 = sext i32 %144 to i64
  %146 = getelementptr inbounds [100 x [100 x i32]], [100 x [100 x i32]]* %4, i64 0, i64 %145
  %147 = load i32, i32* %6, align 4
  %148 = sext i32 %147 to i64
  %149 = getelementptr inbounds [100 x i32], [100 x i32]* %146, i64 0, i64 %148
  %150 = load i32, i32* %149, align 4
  %151 = call i32 (i8*, ...) @printf(i8* getelementptr inbounds ([4 x i8], [4 x i8]* @.str.2, i64 0, i64 0), i32 %150)
  br label %161

152:                                              ; preds = %138
  %153 = load i32, i32* %5, align 4
  %154 = sext i32 %153 to i64
  %155 = getelementptr inbounds [100 x [100 x i32]], [100 x [100 x i32]]* %4, i64 0, i64 %154
  %156 = load i32, i32* %6, align 4
  %157 = sext i32 %156 to i64
  %158 = getelementptr inbounds [100 x i32], [100 x i32]* %155, i64 0, i64 %157
  %159 = load i32, i32* %158, align 4
  %160 = call i32 (i8*, ...) @printf(i8* getelementptr inbounds ([4 x i8], [4 x i8]* @.str.3, i64 0, i64 0), i32 %159)
  br label %161

161:                                              ; preds = %152, %143
  br label %162

162:                                              ; preds = %161
  %163 = load i32, i32* %6, align 4
  %164 = add nsw i32 %163, 1
  store i32 %164, i32* %6, align 4
  br label %134

165:                                              ; preds = %134
  br label %166

166:                                              ; preds = %165
  %167 = load i32, i32* %5, align 4
  %168 = add nsw i32 %167, 1
  store i32 %168, i32* %5, align 4
  br label %129

169:                                              ; preds = %129
  %170 = load i32, i32* %1, align 4
  ret i32 %170
}

declare dso_local i32 @__isoc99_scanf(i8*, ...) #1

declare dso_local i32 @printf(i8*, ...) #1


!llvm.module.flags = !{!0}
!llvm.ident = !{!1}

!0 = !{i32 1, !"wchar_size", i32 4}
!1 = !{!"clang version 10.0.0-4ubuntu1 "}
